target datalayout = "e-m:e-p270:32:32-p271:32:32-p272:64:64-i64:64-i128:128-f80:128-n8:16:32:64-S128"
target triple = "x86_64-unknown-linux-gnu"

; Function Attrs: nounwind sspstrong uwtable
define internal i32 @cpu_to_be32(i32 noundef %v) #0 {
entry:
  %v.addr = alloca i32, align 4
  store i32 %v, ptr %v.addr, align 4
  %0 = load i32, ptr %v.addr, align 4
  %1 = call i32 @llvm.bswap.i32(i32 %0)
  ret i32 %1
}

; Function Attrs: nounwind sspstrong uwtable
define dso_local i32 @qemu_fdt_setprop_sized_cells_from_array(ptr noundef %fdt, ptr noundef %node_path, ptr noundef %property, i32 noundef %numvalues, ptr noundef %values) #0 {
entry:
  %fdt.addr = alloca ptr, align 8
  %node_path.addr = alloca ptr, align 8
  %property.addr = alloca ptr, align 8
  %numvalues.addr = alloca i32, align 4
  %values.addr = alloca ptr, align 8
  %propcells = alloca ptr, align 8
  %value = alloca i64, align 8
  %cellnum = alloca i32, align 4
  %vnum = alloca i32, align 4
  %ncells = alloca i32, align 4
  %hival = alloca i32, align 4
  %ret = alloca i32, align 4
  store ptr %fdt, ptr %fdt.addr, align 8
  store ptr %node_path, ptr %node_path.addr, align 8
  store ptr %property, ptr %property.addr, align 8
  store i32 %numvalues, ptr %numvalues.addr, align 4
  store ptr %values, ptr %values.addr, align 8
  %0 = load i32, ptr %numvalues.addr, align 4
  %mul = mul i32 %0, 2
  %conv = sext i32 %mul to i64
  %call = call noalias ptr @g_malloc0_n(i64 noundef %conv, i64 noundef 4) #13
  store ptr %call, ptr %propcells, align 8
  store i32 0, ptr %cellnum, align 4
  store i32 0, ptr %vnum, align 4
  br label %for.cond

for.cond:                                         ; preds = %for.inc, %entry
  %1 = load i32, ptr %vnum, align 4
  %2 = load i32, ptr %numvalues.addr, align 4
  %cmp = icmp slt i32 %1, %2
  br i1 %cmp, label %for.body, label %for.end

for.body:                                         ; preds = %for.cond
  %3 = load ptr, ptr %values.addr, align 8
  %4 = load i32, ptr %vnum, align 4
  %mul2 = mul i32 %4, 2
  %idxprom = sext i32 %mul2 to i64
  %arrayidx = getelementptr i64, ptr %3, i64 %idxprom
  %5 = load i64, ptr %arrayidx, align 8
  %conv3 = trunc i64 %5 to i32
  store i32 %conv3, ptr %ncells, align 4
  %6 = load i32, ptr %ncells, align 4
  %cmp4 = icmp ne i32 %6, 1
  br i1 %cmp4, label %land.lhs.true, label %if.end

land.lhs.true:                                    ; preds = %for.body
  %7 = load i32, ptr %ncells, align 4
  %cmp6 = icmp ne i32 %7, 2
  br i1 %cmp6, label %if.then, label %if.end

if.then:                                          ; preds = %land.lhs.true
  store i32 -1, ptr %ret, align 4
  br label %out

if.end:                                           ; preds = %land.lhs.true, %for.body
  %8 = load ptr, ptr %values.addr, align 8
  %9 = load i32, ptr %vnum, align 4
  %mul8 = mul i32 %9, 2
  %add = add i32 %mul8, 1
  %idxprom9 = sext i32 %add to i64
  %arrayidx10 = getelementptr i64, ptr %8, i64 %idxprom9
  %10 = load i64, ptr %arrayidx10, align 8
  store i64 %10, ptr %value, align 8
  %11 = load i64, ptr %value, align 8
  %shr = lshr i64 %11, 32
  %conv11 = trunc i64 %shr to i32
  %call12 = call i32 @cpu_to_be32(i32 noundef %conv11)
  store i32 %call12, ptr %hival, align 4
  %12 = load i32, ptr %ncells, align 4
  %cmp13 = icmp sgt i32 %12, 1
  br i1 %cmp13, label %if.then15, label %if.else

if.then15:                                        ; preds = %if.end
  %13 = load i32, ptr %hival, align 4
  %14 = load ptr, ptr %propcells, align 8
  %15 = load i32, ptr %cellnum, align 4
  %inc = add i32 %15, 1
  store i32 %inc, ptr %cellnum, align 4
  %idxprom16 = sext i32 %15 to i64
  %arrayidx17 = getelementptr i32, ptr %14, i64 %idxprom16
  store i32 %13, ptr %arrayidx17, align 4
  br label %if.end22

if.else:                                          ; preds = %if.end
  %16 = load i32, ptr %hival, align 4
  %cmp18 = icmp ne i32 %16, 0
  br i1 %cmp18, label %if.then20, label %if.end21

if.then20:                                        ; preds = %if.else
  store i32 -1, ptr %ret, align 4
  br label %out

if.end21:                                         ; preds = %if.else
  br label %if.end22

if.end22:                                         ; preds = %if.end21, %if.then15
  %17 = load i64, ptr %value, align 8
  %conv23 = trunc i64 %17 to i32
  %call24 = call i32 @cpu_to_be32(i32 noundef %conv23)
  %18 = load ptr, ptr %propcells, align 8
  %19 = load i32, ptr %cellnum, align 4
  %inc25 = add i32 %19, 1
  store i32 %inc25, ptr %cellnum, align 4
  %idxprom26 = sext i32 %19 to i64
  %arrayidx27 = getelementptr i32, ptr %18, i64 %idxprom26
  store i32 %call24, ptr %arrayidx27, align 4
  br label %for.inc

for.inc:                                          ; preds = %if.end22
  %20 = load i32, ptr %vnum, align 4
  %inc28 = add i32 %20, 1
  store i32 %inc28, ptr %vnum, align 4
  br label %for.cond, !llvm.loop !18

for.end:                                          ; preds = %for.cond
  %21 = load ptr, ptr %fdt.addr, align 8
  %22 = load ptr, ptr %node_path.addr, align 8
  %23 = load ptr, ptr %property.addr, align 8
  %24 = load ptr, ptr %propcells, align 8
  %25 = load i32, ptr %cellnum, align 4
  %conv29 = sext i32 %25 to i64
  %mul30 = mul i64 %conv29, 4
  %conv31 = trunc i64 %mul30 to i32
  %call32 = call i32 @qemu_fdt_setprop(ptr noundef %21, ptr noundef %22, ptr noundef %23, ptr noundef %24, i32 noundef %conv31)
  store i32 %call32, ptr %ret, align 4
  br label %out

out:                                              ; preds = %for.end, %if.then20, %if.then
  %26 = load ptr, ptr %propcells, align 8
  call void @g_free(ptr noundef %26)
  %27 = load i32, ptr %ret, align 4
  ret i32 %27
}