; Function Attrs: nounwind sspstrong uwtable
define dso_local range(i32 -1, -2147483648) i32 @qemu_fdt_setprop_sized_cells_from_array(ptr noundef %fdt, ptr noundef %node_path, ptr noundef %property, i32 noundef %numvalues, ptr noundef readonly captures(none) %values) local_unnamed_addr #0 {
entry:
  %mul = shl i32 %numvalues, 1
  %conv = sext i32 %mul to i64
  %call = tail call noalias ptr @g_malloc0_n(i64 noundef %conv, i64 noundef 4) #15
  %cmp16 = icmp sgt i32 %numvalues, 0
  br i1 %cmp16, label %for.body.preheader, label %for.end

for.body.preheader:                               ; preds = %entry
  %wide.trip.count = zext nneg i32 %numvalues to i64
  br label %for.body

for.body:                                         ; preds = %for.body.preheader, %if.end22
  %indvars.iv = phi i64 [ 0, %for.body.preheader ], [ %indvars.iv.next, %if.end22 ]
  %cellnum.018 = phi i32 [ 0, %for.body.preheader ], [ %inc25, %if.end22 ]
  %sext = shl i64 %indvars.iv, 33
  %0 = ashr exact i64 %sext, 29
  %arrayidx = getelementptr i8, ptr %values, i64 %0
  %1 = load i64, ptr %arrayidx, align 8
  %conv3 = trunc i64 %1 to i32
  %2 = add i32 %conv3, -3
  %or.cond = icmp ult i32 %2, -2
  br i1 %or.cond, label %out, label %if.end

if.end:                                           ; preds = %for.body
  %indvars.iv.tr = trunc i64 %indvars.iv to i32
  %3 = shl i32 %indvars.iv.tr, 1
  %4 = or disjoint i32 %3, 1
  %idxprom9 = sext i32 %4 to i64
  %arrayidx10 = getelementptr i64, ptr %values, i64 %idxprom9
  %5 = load i64, ptr %arrayidx10, align 8
  %cmp13 = icmp samesign ugt i32 %conv3, 1
  br i1 %cmp13, label %if.then15, label %if.else

if.then15:                                        ; preds = %if.end
  %shr = lshr i64 %5, 32
  %conv11 = trunc nuw i64 %shr to i32
  %6 = tail call noundef i32 @llvm.bswap.i32(i32 %conv11)
  %inc = add i32 %cellnum.018, 1
  %idxprom16 = sext i32 %cellnum.018 to i64
  %arrayidx17 = getelementptr i32, ptr %call, i64 %idxprom16
  store i32 %6, ptr %arrayidx17, align 4
  br label %if.end22

if.else:                                          ; preds = %if.end
  %cmp18.not = icmp ult i64 %5, 4294967296
  br i1 %cmp18.not, label %if.end22, label %out

if.end22:                                         ; preds = %if.else, %if.then15
  %cellnum.1 = phi i32 [ %inc, %if.then15 ], [ %cellnum.018, %if.else ]
  %conv23 = trunc i64 %5 to i32
  %7 = tail call noundef i32 @llvm.bswap.i32(i32 %conv23)
  %inc25 = add i32 %cellnum.1, 1
  %idxprom26 = sext i32 %cellnum.1 to i64
  %arrayidx27 = getelementptr i32, ptr %call, i64 %idxprom26
  store i32 %7, ptr %arrayidx27, align 4
  %indvars.iv.next = add nuw nsw i64 %indvars.iv, 1
  %exitcond.not = icmp eq i64 %indvars.iv.next, %wide.trip.count
  br i1 %exitcond.not, label %for.end.loopexit, label %for.body, !llvm.loop !18

for.end.loopexit:                                 ; preds = %if.end22
  %8 = shl i32 %inc25, 2
  br label %for.end

for.end:                                          ; preds = %for.end.loopexit, %entry
  %cellnum.0.lcssa = phi i32 [ 0, %entry ], [ %8, %for.end.loopexit ]
  %call32 = tail call i32 @qemu_fdt_setprop(ptr noundef %fdt, ptr noundef %node_path, ptr noundef %property, ptr noundef %call, i32 noundef %cellnum.0.lcssa)
  br label %out

out:                                              ; preds = %if.else, %for.body, %for.end
  %ret.0 = phi i32 [ %call32, %for.end ], [ -1, %for.body ], [ -1, %if.else ]
  tail call void @g_free(ptr noundef %call) #12
  ret i32 %ret.0
}